; ModuleID = '56/609.c'
source_filename = "56/609.c"
target datalayout = "e-m:e-p270:32:32-p271:32:32-p272:64:64-i64:64-f80:128-n8:16:32:64-S128"
target triple = "x86_64-pc-linux-gnu"

@.str = private unnamed_addr constant [3 x i8] c"%s\00", align 1
@.str.1 = private unnamed_addr constant [3 x i8] c"%c\00", align 1
@.str.2 = private unnamed_addr constant [2 x i8] c"\0A\00", align 1

; Function Attrs: noinline nounwind uwtable
define dso_local i32 @main(i32 %0, i8** %1) #0 {
  %3 = alloca i32, align 4
  %4 = alloca i32, align 4
  %5 = alloca i8**, align 8
  %6 = alloca [6 x i8], align 1
  %7 = alloca i32, align 4
  %8 = alloca i32, align 4
  store i32 0, i32* %3, align 4
  store i32 %0, i32* %4, align 4
  store i8** %1, i8*** %5, align 8
  %9 = call i32 (i8*, ...) @__isoc99_scanf(i8* getelementptr inbounds ([3 x i8], [3 x i8]* @.str, i64 0, i64 0), [6 x i8]* %6)
  store i32 0, i32* %8, align 4
  br label %10

10:                                               ; preds = %23, %2
  %11 = load i32, i32* %8, align 4
  %12 = icmp sle i32 %11, 5
  br i1 %12, label %13, label %26

13:                                               ; preds = %10
  %14 = load i32, i32* %8, align 4
  %15 = sext i32 %14 to i64
  %16 = getelementptr inbounds [6 x i8], [6 x i8]* %6, i64 0, i64 %15
  %17 = load i8, i8* %16, align 1
  %18 = sext i8 %17 to i32
  %19 = icmp eq i32 %18, 0
  br i1 %19, label %20, label %22

20:                                               ; preds = %13
  %21 = load i32, i32* %8, align 4
  store i32 %21, i32* %7, align 4
  br label %26

22:                                               ; preds = %13
  br label %23

23:                                               ; preds = %22
  %24 = load i32, i32* %8, align 4
  %25 = add nsw i32 %24, 1
  store i32 %25, i32* %8, align 4
  br label %10

26:                                               ; preds = %20, %10
  %27 = load i32, i32* %7, align 4
  %28 = sub nsw i32 %27, 1
  store i32 %28, i32* %8, align 4
  br label %29

29:                                               ; preds = %39, %26
  %30 = load i32, i32* %8, align 4
  %31 = icmp sge i32 %30, 0
  br i1 %31, label %32, label %42

32:                                               ; preds = %29
  %33 = load i32, i32* %8, align 4
  %34 = sext i32 %33 to i64
  %35 = getelementptr inbounds [6 x i8], [6 x i8]* %6, i64 0, i64 %34
  %36 = load i8, i8* %35, align 1
  %37 = sext i8 %36 to i32
  %38 = call i32 (i8*, ...) @printf(i8* getelementptr inbounds ([3 x i8], [3 x i8]* @.str.1, i64 0, i64 0), i32 %37)
  br label %39

39:                                               ; preds = %32
  %40 = load i32, i32* %8, align 4
  %41 = add nsw i32 %40, -1
  store i32 %41, i32* %8, align 4
  br label %29

42:                                               ; preds = %29
  %43 = call i32 (i8*, ...) @printf(i8* getelementptr inbounds ([2 x i8], [2 x i8]* @.str.2, i64 0, i64 0))
  ret i32 0
}

declare dso_local i32 @__isoc99_scanf(i8*, ...) #1

declare dso_local i32 @printf(i8*, ...) #1


!llvm.module.flags = !{!0}
!llvm.ident = !{!1}

!0 = !{i32 1, !"wchar_size", i32 4}
!1 = !{!"clang version 10.0.0-4ubuntu1 "}
